target datalayout = "e-m:e-p270:32:32-p271:32:32-p272:64:64-i64:64-i128:128-f80:128-n8:16:32:64-S128"
target triple = "x86_64-pc-linux-gnu"

%struct.ImGuiStorage = type { %struct.ImVector.2 }
%struct.ImVector.2 = type { i32, i32, ptr }
%struct.ImGuiSelectionBasicStorage = type { i32, i8, ptr, ptr, i32, %struct.ImGuiStorage }

; Function Attrs: mustprogress uwtable
define dso_local void @_ZN26ImGuiSelectionBasicStorage15SetItemSelectedEjb(ptr noundef nonnull align 8 dereferenceable(48) %0, i32 noundef %1, i1 noundef zeroext %2) #8 align 2 {
  %4 = alloca ptr, align 8
  %5 = alloca i32, align 4
  %6 = alloca i8, align 1
  %7 = alloca ptr, align 8
  store ptr %0, ptr %4, align 8, !tbaa !710
  store i32 %1, ptr %5, align 4, !tbaa !9
  %8 = zext i1 %2 to i8
  store i8 %8, ptr %6, align 1, !tbaa !67
  %9 = load ptr, ptr %4, align 8
  call void @llvm.lifetime.start.p0(i64 8, ptr %7) #17
  %10 = getelementptr inbounds nuw %struct.ImGuiSelectionBasicStorage, ptr %9, i32 0, i32 5
  %11 = load i32, ptr %5, align 4, !tbaa !9
  %12 = call noundef ptr @_ZN12ImGuiStorage9GetIntRefEji(ptr noundef nonnull align 8 dereferenceable(16) %10, i32 noundef %11, i32 noundef 0)
  store ptr %12, ptr %7, align 8, !tbaa !258
  %13 = load i8, ptr %6, align 1, !tbaa !67, !range !59, !noundef !60
  %14 = trunc i8 %13 to i1
  br i1 %14, label %15, label %27

15:                                               ; preds = %3
  %16 = load ptr, ptr %7, align 8, !tbaa !258
  %17 = load i32, ptr %16, align 4, !tbaa !9
  %18 = icmp eq i32 %17, 0
  br i1 %18, label %19, label %27

19:                                               ; preds = %15
  %20 = getelementptr inbounds nuw %struct.ImGuiSelectionBasicStorage, ptr %9, i32 0, i32 4
  %21 = load i32, ptr %20, align 8, !tbaa !717
  %22 = add nsw i32 %21, 1
  store i32 %22, ptr %20, align 8, !tbaa !717
  %23 = load ptr, ptr %7, align 8, !tbaa !258
  store i32 %21, ptr %23, align 4, !tbaa !9
  %24 = getelementptr inbounds nuw %struct.ImGuiSelectionBasicStorage, ptr %9, i32 0, i32 0
  %25 = load i32, ptr %24, align 8, !tbaa !712
  %26 = add nsw i32 %25, 1
  store i32 %26, ptr %24, align 8, !tbaa !712
  br label %40

27:                                               ; preds = %15, %3
  %28 = load i8, ptr %6, align 1, !tbaa !67, !range !59, !noundef !60
  %29 = trunc i8 %28 to i1
  br i1 %29, label %39, label %30

30:                                               ; preds = %27
  %31 = load ptr, ptr %7, align 8, !tbaa !258
  %32 = load i32, ptr %31, align 4, !tbaa !9
  %33 = icmp ne i32 %32, 0
  br i1 %33, label %34, label %39

34:                                               ; preds = %30
  %35 = load ptr, ptr %7, align 8, !tbaa !258
  store i32 0, ptr %35, align 4, !tbaa !9
  %36 = getelementptr inbounds nuw %struct.ImGuiSelectionBasicStorage, ptr %9, i32 0, i32 0
  %37 = load i32, ptr %36, align 8, !tbaa !712
  %38 = add nsw i32 %37, -1
  store i32 %38, ptr %36, align 8, !tbaa !712
  br label %39

39:                                               ; preds = %34, %30, %27
  br label %40

40:                                               ; preds = %39, %19
  call void @llvm.lifetime.end.p0(i64 8, ptr %7) #17
  ret void
}