; Function Attrs: mustprogress uwtable
define dso_local void @_ZN26ImGuiSelectionBasicStorage15SetItemSelectedEjb(ptr noundef nonnull align 8 dereferenceable(48) %0, i32 noundef %1, i1 noundef zeroext %2) local_unnamed_addr #5 align 2 {
  %4 = getelementptr inbounds nuw i8, ptr %0, i64 32
  %5 = tail call noundef ptr @_ZN12ImGuiStorage9GetIntRefEji(ptr noundef nonnull align 8 dereferenceable(16) %4, i32 noundef %1, i32 noundef 0)
  %6 = load i32, ptr %5, align 4, !tbaa !176
  %7 = icmp eq i32 %6, 0
  br i1 %2, label %8, label %.critedge

8:                                                ; preds = %3
  br i1 %7, label %9, label %15

9:                                                ; preds = %8
  %10 = getelementptr inbounds nuw i8, ptr %0, i64 24
  %11 = load i32, ptr %10, align 8, !tbaa !636
  %12 = add nsw i32 %11, 1
  store i32 %12, ptr %10, align 8, !tbaa !636
  br label %.sink.split

.critedge:                                        ; preds = %3
  br i1 %7, label %15, label %.sink.split

.sink.split:                                      ; preds = %.critedge, %9
  %.sink = phi i32 [ %11, %9 ], [ 0, %.critedge ]
  %.sink8 = phi i32 [ 1, %9 ], [ -1, %.critedge ]
  store i32 %.sink, ptr %5, align 4, !tbaa !176
  %13 = load i32, ptr %0, align 8, !tbaa !631
  %14 = add nsw i32 %13, %.sink8
  store i32 %14, ptr %0, align 8, !tbaa !631
  br label %15

15:                                               ; preds = %.sink.split, %8, %.critedge
  ret void
}